; Function Attrs: mustprogress uwtable
define i32 @_ZNK15CacheProxyModel5flagsERK11QModelIndex(ptr noundef nonnull align 8 dereferenceable(32) %0, ptr noundef nonnull align 8 dereferenceable(24) %1) unnamed_addr #0 align 2 {
  %3 = tail call noundef ptr @_ZNK19QAbstractProxyModel11sourceModelEv(ptr noundef nonnull align 8 dereferenceable(16) %0)
  %4 = getelementptr inbounds i8, ptr %0, i64 16
  %.not = icmp eq ptr %3, %4
  br i1 %.not, label %7, label %5

5:                                                ; preds = %2
  %6 = tail call i32 @_ZNK19QAbstractProxyModel5flagsERK11QModelIndex(ptr noundef nonnull align 8 dereferenceable(16) %0, ptr noundef nonnull align 8 dereferenceable(24) %1)
  br label %7

7:                                                ; preds = %2, %5
  %.sroa.0.0 = phi i32 [ %6, %5 ], [ 33, %2 ]
  ret i32 %.sroa.0.0
}